; Function Attrs: mustprogress nounwind willreturn memory(readwrite, argmem: none) uwtable
define noalias noundef ptr @ZBUFFv06_createDCtx() local_unnamed_addr #20 {
  %calloc = tail call dereferenceable_or_null(120) ptr @calloc(i64 1, i64 120)
  %1 = icmp eq ptr %calloc, null
  br i1 %1, label %12, label %2

2:                                                ; preds = %0
  %3 = tail call noalias dereferenceable_or_null(152712) ptr @malloc(i64 noundef 152712) #29
  %4 = icmp eq ptr %3, null
  br i1 %4, label %ZBUFFv06_freeDCtx.exit, label %5

ZBUFFv06_freeDCtx.exit:                           ; preds = %2
  tail call void @free(ptr noundef nonnull %calloc) #28
  br label %12

5:                                                ; preds = %2
  %6 = getelementptr inbounds nuw i8, ptr %3, i64 21552
  store i64 5, ptr %6, align 8, !tbaa !69
  %7 = getelementptr inbounds nuw i8, ptr %3, i64 21588
  store i32 0, ptr %7, align 4, !tbaa !73
  %8 = getelementptr inbounds nuw i8, ptr %3, i64 21520
  %9 = getelementptr inbounds nuw i8, ptr %3, i64 5132
  tail call void @llvm.memset.p0.i64(ptr noundef nonnull align 8 dereferenceable(32) %8, i8 0, i64 32, i1 false)
  store i32 12, ptr %9, align 4, !tbaa !3
  %10 = getelementptr inbounds nuw i8, ptr %3, i64 21592
  store i32 0, ptr %10, align 8, !tbaa !74
  store ptr %3, ptr %calloc, align 8, !tbaa !95
  %11 = getelementptr inbounds nuw i8, ptr %calloc, i64 24
  store i32 0, ptr %11, align 8, !tbaa !98
  br label %12

12:                                               ; preds = %0, %5, %ZBUFFv06_freeDCtx.exit
  %.0 = phi ptr [ null, %ZBUFFv06_freeDCtx.exit ], [ %calloc, %5 ], [ null, %0 ]
  ret ptr %.0
}